target datalayout = "e-m:e-p270:32:32-p271:32:32-p272:64:64-i64:64-i128:128-f80:128-n8:16:32:64-S128"
target triple = "x86_64-pc-linux-gnu"

; Function Attrs: mustprogress nounwind uwtable
define signext i8 @uprv_asciitolower_77(i8 noundef signext %0) #0 {
  %2 = alloca i8, align 1
  store i8 %0, ptr %2, align 1, !tbaa !3
  %3 = load i8, ptr %2, align 1, !tbaa !3
  %4 = sext i8 %3 to i32
  %5 = icmp sle i32 65, %4
  br i1 %5, label %6, label %15

6:                                                ; preds = %1
  %7 = load i8, ptr %2, align 1, !tbaa !3
  %8 = sext i8 %7 to i32
  %9 = icmp sle i32 %8, 90
  br i1 %9, label %10, label %15

10:                                               ; preds = %6
  %11 = load i8, ptr %2, align 1, !tbaa !3
  %12 = sext i8 %11 to i32
  %13 = add nsw i32 %12, 32
  %14 = trunc i32 %13 to i8
  store i8 %14, ptr %2, align 1, !tbaa !3
  br label %15

15:                                               ; preds = %10, %6, %1
  %16 = load i8, ptr %2, align 1, !tbaa !3
  ret i8 %16
}

; Function Attrs: mustprogress nounwind uwtable
define i32 @uprv_strnicmp_77(ptr noundef %0, ptr noundef %1, i32 noundef %2) #0 {
  %4 = alloca i32, align 4
  %5 = alloca ptr, align 8
  %6 = alloca ptr, align 8
  %7 = alloca i32, align 4
  %8 = alloca i32, align 4
  %9 = alloca i8, align 1
  %10 = alloca i8, align 1
  %11 = alloca i32, align 4
  store ptr %0, ptr %5, align 8, !tbaa !6
  store ptr %1, ptr %6, align 8, !tbaa !6
  store i32 %2, ptr %7, align 4, !tbaa !12
  %12 = load ptr, ptr %5, align 8, !tbaa !6
  %13 = icmp eq ptr %12, null
  br i1 %13, label %14, label %19

14:                                               ; preds = %3
  %15 = load ptr, ptr %6, align 8, !tbaa !6
  %16 = icmp eq ptr %15, null
  br i1 %16, label %17, label %18

17:                                               ; preds = %14
  store i32 0, ptr %4, align 4
  br label %72

18:                                               ; preds = %14
  store i32 -1, ptr %4, align 4
  br label %72

19:                                               ; preds = %3
  %20 = load ptr, ptr %6, align 8, !tbaa !6
  %21 = icmp eq ptr %20, null
  br i1 %21, label %22, label %23

22:                                               ; preds = %19
  store i32 1, ptr %4, align 4
  br label %72

23:                                               ; preds = %19
  call void @llvm.lifetime.start.p0(i64 4, ptr %8) #7
  call void @llvm.lifetime.start.p0(i64 1, ptr %9) #7
  call void @llvm.lifetime.start.p0(i64 1, ptr %10) #7
  br label %24

24:                                               ; preds = %61, %23
  %25 = load i32, ptr %7, align 4, !tbaa !12
  %26 = add i32 %25, -1
  store i32 %26, ptr %7, align 4, !tbaa !12
  %27 = icmp ne i32 %25, 0
  br i1 %27, label %28, label %66

28:                                               ; preds = %24
  %29 = load ptr, ptr %5, align 8, !tbaa !6
  %30 = load i8, ptr %29, align 1, !tbaa !3
  store i8 %30, ptr %9, align 1, !tbaa !3
  %31 = load ptr, ptr %6, align 8, !tbaa !6
  %32 = load i8, ptr %31, align 1, !tbaa !3
  store i8 %32, ptr %10, align 1, !tbaa !3
  %33 = load i8, ptr %9, align 1, !tbaa !3
  %34 = zext i8 %33 to i32
  %35 = icmp eq i32 %34, 0
  br i1 %35, label %36, label %42

36:                                               ; preds = %28
  %37 = load i8, ptr %10, align 1, !tbaa !3
  %38 = zext i8 %37 to i32
  %39 = icmp eq i32 %38, 0
  br i1 %39, label %40, label %41

40:                                               ; preds = %36
  store i32 0, ptr %4, align 4
  store i32 1, ptr %11, align 4
  br label %67

41:                                               ; preds = %36
  store i32 -1, ptr %4, align 4
  store i32 1, ptr %11, align 4
  br label %67

42:                                               ; preds = %28
  %43 = load i8, ptr %10, align 1, !tbaa !3
  %44 = zext i8 %43 to i32
  %45 = icmp eq i32 %44, 0
  br i1 %45, label %46, label %47

46:                                               ; preds = %42
  store i32 1, ptr %4, align 4
  store i32 1, ptr %11, align 4
  br label %67

47:                                               ; preds = %42
  %48 = load i8, ptr %9, align 1, !tbaa !3
  %49 = call signext i8 @uprv_asciitolower_77(i8 noundef signext %48)
  %50 = zext i8 %49 to i32
  %51 = load i8, ptr %10, align 1, !tbaa !3
  %52 = call signext i8 @uprv_asciitolower_77(i8 noundef signext %51)
  %53 = zext i8 %52 to i32
  %54 = sub nsw i32 %50, %53
  store i32 %54, ptr %8, align 4, !tbaa !12
  %55 = load i32, ptr %8, align 4, !tbaa !12
  %56 = icmp ne i32 %55, 0
  br i1 %56, label %57, label %59

57:                                               ; preds = %47
  %58 = load i32, ptr %8, align 4, !tbaa !12
  store i32 %58, ptr %4, align 4
  store i32 1, ptr %11, align 4
  br label %67

59:                                               ; preds = %47
  br label %60

60:                                               ; preds = %59
  br label %61

61:                                               ; preds = %60
  %62 = load ptr, ptr %5, align 8, !tbaa !6
  %63 = getelementptr inbounds nuw i8, ptr %62, i32 1
  store ptr %63, ptr %5, align 8, !tbaa !6
  %64 = load ptr, ptr %6, align 8, !tbaa !6
  %65 = getelementptr inbounds nuw i8, ptr %64, i32 1
  store ptr %65, ptr %6, align 8, !tbaa !6
  br label %24, !llvm.loop !19

66:                                               ; preds = %24
  store i32 0, ptr %11, align 4
  br label %67

67:                                               ; preds = %66, %57, %46, %41, %40
  call void @llvm.lifetime.end.p0(i64 1, ptr %10) #7
  call void @llvm.lifetime.end.p0(i64 1, ptr %9) #7
  call void @llvm.lifetime.end.p0(i64 4, ptr %8) #7
  %68 = load i32, ptr %11, align 4
  switch i32 %68, label %74 [
    i32 0, label %69
    i32 1, label %72
  ]

69:                                               ; preds = %67
  br label %70

70:                                               ; preds = %69
  br label %71

71:                                               ; preds = %70
  store i32 0, ptr %4, align 4
  br label %72

72:                                               ; preds = %71, %67, %22, %18, %17
  %73 = load i32, ptr %4, align 4
  ret i32 %73

74:                                               ; preds = %67
  unreachable
}