; Function Attrs: mustprogress nofree norecurse nosync nounwind willreturn memory(argmem: read) uwtable
define range(i32 -254, 255) i32 @uprv_strnicmp_77(ptr noundef readonly %0, ptr noundef readonly %1, i32 noundef %2) local_unnamed_addr #7 {
  %4 = icmp eq ptr %0, null
  br i1 %4, label %5, label %7

5:                                                ; preds = %3
  %6 = icmp ne ptr %1, null
  %. = sext i1 %6 to i32
  br label %.loopexit

7:                                                ; preds = %3
  %8 = icmp eq ptr %1, null
  br i1 %8, label %.loopexit, label %.preheader

.preheader:                                       ; preds = %7
  %.not.not27 = icmp eq i32 %2, 0
  br i1 %.not.not27, label %.loopexit, label %.lr.ph

.lr.ph:                                           ; preds = %.preheader, %25
  %.in = phi i32 [ %9, %25 ], [ %2, %.preheader ]
  %.01729 = phi ptr [ %26, %25 ], [ %0, %.preheader ]
  %.01828 = phi ptr [ %27, %25 ], [ %1, %.preheader ]
  %9 = add i32 %.in, -1
  %10 = load i8, ptr %.01729, align 1, !tbaa !3
  %11 = load i8, ptr %.01828, align 1, !tbaa !3
  %12 = icmp eq i8 %10, 0
  br i1 %12, label %13, label %15

13:                                               ; preds = %.lr.ph
  %14 = icmp ne i8 %11, 0
  %.24 = sext i1 %14 to i32
  br label %.loopexit

15:                                               ; preds = %.lr.ph
  %16 = icmp eq i8 %11, 0
  br i1 %16, label %.loopexit, label %17

17:                                               ; preds = %15
  %18 = add i8 %10, -65
  %or.cond.i = icmp ult i8 %18, 26
  %19 = or disjoint i8 %10, 32
  %spec.select.i = select i1 %or.cond.i, i8 %19, i8 %10
  %20 = zext i8 %spec.select.i to i32
  %21 = add i8 %11, -65
  %or.cond.i25 = icmp ult i8 %21, 26
  %22 = or disjoint i8 %11, 32
  %spec.select.i26 = select i1 %or.cond.i25, i8 %22, i8 %11
  %23 = zext i8 %spec.select.i26 to i32
  %24 = sub nsw i32 %20, %23
  %.not23 = icmp eq i32 %24, 0
  br i1 %.not23, label %25, label %.loopexit

25:                                               ; preds = %17
  %26 = getelementptr inbounds nuw i8, ptr %.01729, i64 1
  %27 = getelementptr inbounds nuw i8, ptr %.01828, i64 1
  %.not.not = icmp eq i32 %9, 0
  br i1 %.not.not, label %.loopexit, label %.lr.ph, !llvm.loop !12

.loopexit:                                        ; preds = %25, %17, %15, %.preheader, %13, %7, %5
  %.016 = phi i32 [ %., %5 ], [ 1, %7 ], [ %.24, %13 ], [ 0, %.preheader ], [ 0, %25 ], [ %24, %17 ], [ 1, %15 ]
  ret i32 %.016
}